target datalayout = "e-m:e-p270:32:32-p271:32:32-p272:64:64-i64:64-i128:128-f80:128-n8:16:32:64-S128"
target triple = "x86_64-pc-linux-gnu"

%struct.nstime_t = type { i64 }
%struct.hpa_central_s = type { %struct.malloc_mutex_s, ptr, i64, ptr, %struct.hpa_hooks_s }
%struct.malloc_mutex_s = type { %union.anon }
%union.anon = type { %struct.anon }
%struct.anon = type { %struct.mutex_prof_data_t, %struct.atomic_b_t, %union.pthread_mutex_t }
%struct.mutex_prof_data_t = type { %struct.nstime_t, %struct.nstime_t, i64, i64, i32, %struct.atomic_u32_t, i64, ptr, i64 }
%struct.atomic_u32_t = type { i32 }
%struct.atomic_b_t = type { i8 }
%union.pthread_mutex_t = type { %struct.__pthread_mutex_s }
%struct.__pthread_mutex_s = type { i32, i32, i32, i32, i32, i16, i16, %struct.__pthread_internal_list }
%struct.__pthread_internal_list = type { ptr, ptr }
%struct.hpa_hooks_s = type { ptr, ptr, ptr, ptr, ptr, ptr, ptr }
%struct.hpa_shard_s = type { %struct.pai_s, ptr, %struct.malloc_mutex_s, %struct.malloc_mutex_s, ptr, %struct.edata_cache_fast_s, %struct.psset_s, i64, i32, ptr, %struct.hpa_shard_opts_s, i64, %struct.hpa_shard_nonderived_stats_s, %struct.nstime_t }
%struct.pai_s = type { ptr, ptr, ptr, ptr, ptr, ptr, ptr }
%struct.edata_cache_fast_s = type { %struct.edata_list_inactive_t, ptr, i8 }
%struct.edata_list_inactive_t = type { %struct.anon.1 }
%struct.anon.1 = type { ptr }
%struct.psset_s = type { [64 x %struct.hpdata_age_heap_t], [1 x i64], %struct.psset_stats_s, %struct.hpdata_empty_list_t, [128 x %struct.hpdata_purge_list_t], [2 x i64], %struct.hpdata_hugify_list_t }
%struct.hpdata_age_heap_t = type { %struct.ph_s }
%struct.ph_s = type { ptr, i64 }
%struct.psset_stats_s = type { %struct.psset_bin_stats_s, [2 x %struct.psset_bin_stats_s], [64 x [2 x %struct.psset_bin_stats_s]], [2 x %struct.psset_bin_stats_s], [2 x %struct.psset_bin_stats_s] }
%struct.psset_bin_stats_s = type { i64, i64, i64 }
%struct.hpdata_empty_list_t = type { %struct.anon.2 }
%struct.anon.2 = type { ptr }
%struct.hpdata_purge_list_t = type { %struct.anon.3 }
%struct.anon.3 = type { ptr }
%struct.hpdata_hugify_list_t = type { %struct.anon.4 }
%struct.anon.4 = type { ptr }
%struct.hpa_shard_opts_s = type { i64, i64, i32, i8, i64, i8, i64, i64 }
%struct.hpa_shard_nonderived_stats_s = type { i64, i64, i64, i64, i64 }
%struct.phn_link_s = type { ptr, ptr, ptr }
%struct.hpdata_s = type { ptr, i64, i8, i8, i8, i8, i8, %struct.nstime_t, i8, i8, i8, i8, i8, %union.anon.7, %struct.anon.9, %struct.anon.10, i64, i64, [8 x i64], i64, [8 x i64] }
%union.anon.7 = type { %struct.hpdata_age_heap_link_t }
%struct.hpdata_age_heap_link_t = type { %struct.phn_link_s }
%struct.anon.9 = type { ptr, ptr }
%struct.anon.10 = type { ptr, ptr }

; Function Attrs: inlinehint nounwind uwtable
define internal ptr @hpdata_addr_get(ptr noundef %0) #5 {
  %2 = alloca ptr, align 8
  store ptr %0, ptr %2, align 8, !tbaa !84
  %3 = load ptr, ptr %2, align 8, !tbaa !84
  %4 = getelementptr inbounds nuw %struct.hpdata_s, ptr %3, i32 0, i32 0
  %5 = load ptr, ptr %4, align 8, !tbaa !101
  ret ptr %5
}

; Function Attrs: nounwind uwtable
define internal void @hpa_do_consistency_checks(ptr noundef %0) #0 {
  %2 = alloca ptr, align 8
  store ptr %0, ptr %2, align 8, !tbaa !26
  br label %3

3:                                                ; preds = %1
  br label %4

4:                                                ; preds = %3
  ret void
}

; Function Attrs: nounwind uwtable
define hidden void @je_hpa_shard_destroy(ptr noundef %0, ptr noundef %1) #0 {
  %3 = alloca ptr, align 8
  %4 = alloca ptr, align 8
  %5 = alloca ptr, align 8
  store ptr %0, ptr %3, align 8, !tbaa !71
  store ptr %1, ptr %4, align 8, !tbaa !26
  %6 = load ptr, ptr %4, align 8, !tbaa !26
  call void @hpa_do_consistency_checks(ptr noundef %6)
  call void @llvm.lifetime.start.p0(i64 8, ptr %5) #7
  br label %7

7:                                                ; preds = %15, %2
  %8 = load ptr, ptr %4, align 8, !tbaa !26
  %9 = getelementptr inbounds nuw %struct.hpa_shard_s, ptr %8, i32 0, i32 6
  %10 = call ptr @je_psset_pick_alloc(ptr noundef %9, i64 noundef 4096)
  store ptr %10, ptr %5, align 8, !tbaa !84
  %11 = icmp ne ptr %10, null
  br i1 %11, label %12, label %27

12:                                               ; preds = %7
  br label %13

13:                                               ; preds = %12
  br label %14

14:                                               ; preds = %13
  br label %15

15:                                               ; preds = %14
  %16 = load ptr, ptr %4, align 8, !tbaa !26
  %17 = getelementptr inbounds nuw %struct.hpa_shard_s, ptr %16, i32 0, i32 6
  %18 = load ptr, ptr %5, align 8, !tbaa !84
  call void @je_psset_remove(ptr noundef %17, ptr noundef %18)
  %19 = load ptr, ptr %4, align 8, !tbaa !26
  %20 = getelementptr inbounds nuw %struct.hpa_shard_s, ptr %19, i32 0, i32 1
  %21 = load ptr, ptr %20, align 8, !tbaa !36
  %22 = getelementptr inbounds nuw %struct.hpa_central_s, ptr %21, i32 0, i32 4
  %23 = getelementptr inbounds nuw %struct.hpa_hooks_s, ptr %22, i32 0, i32 1
  %24 = load ptr, ptr %23, align 8, !tbaa !99
  %25 = load ptr, ptr %5, align 8, !tbaa !84
  %26 = call ptr @hpdata_addr_get(ptr noundef %25)
  call void %24(ptr noundef %26, i64 noundef 2097152)
  br label %7, !llvm.loop !100

27:                                               ; preds = %7
  call void @llvm.lifetime.end.p0(i64 8, ptr %5) #7
  ret void
}